; Function Attrs: nofree norecurse nosync nounwind memory(argmem: readwrite) uwtable
define internal void @weight_dirac_pixels32_c(ptr noundef captures(none) %0, i32 noundef %1, i32 noundef %2, i32 noundef %3, i32 noundef %4) #1 {
  %.not24 = icmp eq i32 %4, 0
  br i1 %.not24, label %._crit_edge, label %.preheader.lr.ph

.preheader.lr.ph:                                 ; preds = %5
  %6 = add nsw i32 %2, -1
  %7 = shl nuw i32 1, %6
  %8 = sext i32 %1 to i64
  br label %.preheader

.preheader:                                       ; preds = %.preheader.lr.ph, %26
  %.in = phi i32 [ %4, %.preheader.lr.ph ], [ %27, %26 ]
  %.01925 = phi ptr [ %0, %.preheader.lr.ph ], [ %28, %26 ]
  %.pre = load i8, ptr %.01925, align 1, !tbaa !11
  br label %9

9:                                                ; preds = %.preheader, %9
  %10 = phi i8 [ %.pre, %.preheader ], [ %.0.i22, %9 ]
  %indvars.iv = phi i64 [ 0, %.preheader ], [ %indvars.iv.next, %9 ]
  %11 = getelementptr inbounds nuw i8, ptr %.01925, i64 %indvars.iv
  %12 = zext i8 %10 to i32
  %13 = mul nsw i32 %3, %12
  %14 = add nsw i32 %13, %7
  %15 = ashr i32 %14, %2
  %.not.i = icmp ult i32 %15, 256
  %isnotneg.i = icmp sgt i32 %15, -1
  %16 = sext i1 %isnotneg.i to i8
  %17 = trunc nuw i32 %15 to i8
  %.0.i = select i1 %.not.i, i8 %17, i8 %16
  store i8 %.0.i, ptr %11, align 1, !tbaa !11
  %indvars.iv.next = add nuw nsw i64 %indvars.iv, 1
  %18 = getelementptr inbounds nuw i8, ptr %.01925, i64 %indvars.iv.next
  %19 = load i8, ptr %18, align 1, !tbaa !11
  %20 = zext i8 %19 to i32
  %21 = mul nsw i32 %3, %20
  %22 = add nsw i32 %21, %7
  %23 = ashr i32 %22, %2
  %.not.i20 = icmp ult i32 %23, 256
  %isnotneg.i21 = icmp sgt i32 %23, -1
  %24 = sext i1 %isnotneg.i21 to i8
  %25 = trunc nuw i32 %23 to i8
  %.0.i22 = select i1 %.not.i20, i8 %25, i8 %24
  store i8 %.0.i22, ptr %18, align 1, !tbaa !11
  %exitcond.not = icmp eq i64 %indvars.iv.next, 32
  br i1 %exitcond.not, label %26, label %9, !llvm.loop !39

26:                                               ; preds = %9
  %27 = add nsw i32 %.in, -1
  %28 = getelementptr inbounds i8, ptr %.01925, i64 %8
  %.not = icmp eq i32 %27, 0
  br i1 %.not, label %._crit_edge, label %.preheader, !llvm.loop !40

._crit_edge:                                      ; preds = %26, %5
  ret void
}